; Function Attrs: nounwind uwtable
define hidden range(i32 0, 2) i32 @_PyModule_IsExtension(ptr noundef readonly captures(none) %0) local_unnamed_addr #0 {
  %2 = getelementptr i8, ptr %0, i64 8
  %.val = load ptr, ptr %2, align 8, !tbaa !4
  %.not.i = icmp eq ptr %.val, @PyModule_Type
  br i1 %.not.i, label %PyObject_TypeCheck.exit.thread, label %PyObject_TypeCheck.exit

PyObject_TypeCheck.exit:                          ; preds = %1
  %3 = tail call i32 @PyType_IsSubtype(ptr noundef %.val, ptr noundef nonnull @PyModule_Type) #8
  %.not8 = icmp eq i32 %3, 0
  br i1 %.not8, label %11, label %PyObject_TypeCheck.exit.thread

PyObject_TypeCheck.exit.thread:                   ; preds = %1, %PyObject_TypeCheck.exit
  %4 = getelementptr inbounds nuw i8, ptr %0, i64 24
  %5 = load ptr, ptr %4, align 8, !tbaa !10
  %.not6 = icmp eq ptr %5, null
  br i1 %.not6, label %11, label %6

6:                                                ; preds = %PyObject_TypeCheck.exit.thread
  %7 = getelementptr inbounds nuw i8, ptr %5, i64 64
  %8 = load ptr, ptr %7, align 8, !tbaa !14
  %9 = icmp ne ptr %8, null
  %10 = zext i1 %9 to i32
  br label %11

11:                                               ; preds = %PyObject_TypeCheck.exit.thread, %6, %PyObject_TypeCheck.exit
  %.0 = phi i32 [ 0, %PyObject_TypeCheck.exit ], [ 0, %PyObject_TypeCheck.exit.thread ], [ %10, %6 ]
  ret i32 %.0
}